   1               		.file	"sp_mini_speaker.c"
   2               	__SREG__ = 0x3f
   3               	__SP_H__ = 0x3e
   4               	__SP_L__ = 0x3d
   5               	__CCP__  = 0x34
   6               	__tmp_reg__ = 0
   7               	__zero_reg__ = 1
  15               	.Ltext0:
  16               	.global	SfToneGenerator
  18               	SfToneGenerator:
  19               	.LFB3:
  20               	.LM1:
  21 0000 8F92      		push r8
  22 0002 9F92      		push r9
  23 0004 AF92      		push r10
  24 0006 BF92      		push r11
  25 0008 CF92      		push r12
  26 000a DF92      		push r13
  27 000c EF92      		push r14
  28 000e FF92      		push r15
  29 0010 0F93      		push r16
  30 0012 1F93      		push r17
  31 0014 DF93      		push r29
  32 0016 CF93      		push r28
  33 0018 00D0      		rcall .
  34 001a 00D0      		rcall .
  35 001c 0F92      		push __tmp_reg__
  36 001e CDB7      		in r28,__SP_L__
  37 0020 DEB7      		in r29,__SP_H__
  38               	/* prologue: function */
  39               	/* frame size = 5 */
  40 0022 242F      		mov r18,r20
  41 0024 4983      		std Y+1,r20
  42 0026 5A83      		std Y+2,r21
  43 0028 6B83      		std Y+3,r22
  44 002a 7C83      		std Y+4,r23
  45 002c 8D83      		std Y+5,r24
  46               	.LM2:
  47 002e AC80      		ldd r10,Y+4
  48 0030 BD80      		ldd r11,Y+5
  49               	.LM3:
  50 0032 1092 0000 		sts SvStartCalculatingNextNote,__zero_reg__
  51               	.LM4:
  52 0036 E091 0000 		lds r30,SvNextLiveArr
  53 003a F0E0      		ldi r31,lo8(0)
  54 003c E050      		subi r30,lo8(-(SvArrNoteDuration))
  55 003e F040      		sbci r31,hi8(-(SvArrNoteDuration))
  56 0040 5083      		st Z,r21
  57               	.LM5:
  58 0042 4033      		cpi r20,lo8(48)
  59 0044 00F0      		brlo .+2
  60 0046 00C0      		rjmp .L2
  61               	.LM6:
  62 0048 E091 0000 		lds r30,SvNextLiveArr
  63 004c F0E0      		ldi r31,lo8(0)
  64 004e E050      		subi r30,lo8(-(SvNoteHighNOTLow))
  65 0050 F040      		sbci r31,hi8(-(SvNoteHighNOTLow))
  66 0052 1082      		st Z,__zero_reg__
  67               	.LM7:
  68 0054 E091 0000 		lds r30,SvNextLiveArr
  69 0058 F0E0      		ldi r31,lo8(0)
  70 005a 30E0      		ldi r19,lo8(0)
  71 005c 8FE2      		ldi r24,lo8(47)
  72 005e 90E0      		ldi r25,hi8(47)
  73 0060 821B      		sub r24,r18
  74 0062 930B      		sbc r25,r19
  75 0064 6CE0      		ldi r22,lo8(12)
  76 0066 70E0      		ldi r23,hi8(12)
  77 0068 0E94 0000 		call __divmodhi4
  78 006c E050      		subi r30,lo8(-(SvNoteFactor))
  79 006e F040      		sbci r31,hi8(-(SvNoteFactor))
  80 0070 6083      		st Z,r22
  81               	.LM8:
  82 0072 E091 0000 		lds r30,SvNextLiveArr
  83 0076 F0E0      		ldi r31,lo8(0)
  84 0078 2050      		subi r18,lo8(-(SvNoteWaveLength78K))
  85 007a 3040      		sbci r19,hi8(-(SvNoteWaveLength78K))
  86 007c D901      		movw r26,r18
  87 007e 8C91      		ld r24,X
  88 0080 E050      		subi r30,lo8(-(SvArrayElements))
  89 0082 F040      		sbci r31,hi8(-(SvArrayElements))
  90 0084 8083      		st Z,r24
  91               	.LM9:
  92 0086 E091 0000 		lds r30,SvNextLiveArr
  93 008a F0E0      		ldi r31,lo8(0)
  94 008c E050      		subi r30,lo8(-(SvArrayElements))
  95 008e F040      		sbci r31,hi8(-(SvArrayElements))
  96 0090 8081      		ld r24,Z
  97 0092 8823      		tst r24
  98 0094 01F0      		breq .L6
  99 0096 00E0      		ldi r16,lo8(0)
 100               	.LVL0:
 101               	.L4:
 102               	.LM10:
 103 0098 202F      		mov r18,r16
 104 009a 30E0      		ldi r19,lo8(0)
 105               	.LM11:
 106 009c 4091 0000 		lds r20,SvNextLiveArr
 107 00a0 E091 0000 		lds r30,SvNextLiveArr
 108 00a4 F0E0      		ldi r31,lo8(0)
 109 00a6 E050      		subi r30,lo8(-(SvArrayElements))
 110 00a8 F040      		sbci r31,hi8(-(SvArrayElements))
 111 00aa 6081      		ld r22,Z
 112 00ac 80E0      		ldi r24,lo8(0)
 113 00ae 902F      		mov r25,r16
 114               	.LVL1:
 115 00b0 70E0      		ldi r23,lo8(0)
 116 00b2 0E94 0000 		call __udivmodhi4
 117 00b6 FB01      		movw r30,r22
 118 00b8 E050      		subi r30,lo8(-(SvSineWaveLookup256))
 119 00ba F040      		sbci r31,hi8(-(SvSineWaveLookup256))
 120 00bc 8081      		ld r24,Z
 121 00be 90E0      		ldi r25,lo8(0)
 122 00c0 FC01      		movw r30,r24
 123 00c2 EA9D      		mul r30,r10
 124 00c4 C001      		movw r24,r0
 125 00c6 EB9D      		mul r30,r11
 126 00c8 900D      		add r25,r0
 127 00ca FA9D      		mul r31,r10
 128 00cc 900D      		add r25,r0
 129 00ce 1124      		clr r1
 130 00d0 542F      		mov r21,r20
 131 00d2 40E0      		ldi r20,lo8(0)
 132 00d4 240F      		add r18,r20
 133 00d6 351F      		adc r19,r21
 134 00d8 2050      		subi r18,lo8(-(SvPlayArray))
 135 00da 3040      		sbci r19,hi8(-(SvPlayArray))
 136 00dc D901      		movw r26,r18
 137 00de 9C93      		st X,r25
 138               	.LM12:
 139 00e0 0F5F      		subi r16,lo8(-(1))
 140               	.LVL2:
 141 00e2 E091 0000 		lds r30,SvNextLiveArr
 142 00e6 F0E0      		ldi r31,lo8(0)
 143 00e8 E050      		subi r30,lo8(-(SvArrayElements))
 144 00ea F040      		sbci r31,hi8(-(SvArrayElements))
 145 00ec 8081      		ld r24,Z
 146 00ee 0817      		cp r16,r24
 147 00f0 00F0      		brlo .L4
 148               	.LVL3:
 149               	.L6:
 150               	/* epilogue start */
 151               	.LM13:
 152 00f2 0F90      		pop __tmp_reg__
 153 00f4 0F90      		pop __tmp_reg__
 154 00f6 0F90      		pop __tmp_reg__
 155 00f8 0F90      		pop __tmp_reg__
 156 00fa 0F90      		pop __tmp_reg__
 157 00fc CF91      		pop r28
 158 00fe DF91      		pop r29
 159 0100 1F91      		pop r17
 160 0102 0F91      		pop r16
 161               	.LVL4:
 162 0104 FF90      		pop r15
 163 0106 EF90      		pop r14
 164               	.LVL5:
 165 0108 DF90      		pop r13
 166 010a CF90      		pop r12
 167 010c BF90      		pop r11
 168 010e AF90      		pop r10
 169 0110 9F90      		pop r9
 170 0112 8F90      		pop r8
 171 0114 0895      		ret
 172               	.L2:
 173               	.LM14:
 174 0116 E091 0000 		lds r30,SvNextLiveArr
 175 011a F0E0      		ldi r31,lo8(0)
 176 011c E050      		subi r30,lo8(-(SvNoteHighNOTLow))
 177 011e F040      		sbci r31,hi8(-(SvNoteHighNOTLow))
 178 0120 81E0      		ldi r24,lo8(1)
 179 0122 8083      		st Z,r24
 180               	.LM15:
 181 0124 E091 0000 		lds r30,SvNextLiveArr
 182 0128 F0E0      		ldi r31,lo8(0)
 183 012a 30E0      		ldi r19,lo8(0)
 184 012c C901      		movw r24,r18
 185 012e 8497      		sbiw r24,36
 186 0130 6CE0      		ldi r22,lo8(12)
 187 0132 70E0      		ldi r23,hi8(12)
 188 0134 0E94 0000 		call __divmodhi4
 189 0138 E050      		subi r30,lo8(-(SvNoteFactor))
 190 013a F040      		sbci r31,hi8(-(SvNoteFactor))
 191 013c 6083      		st Z,r22
 192               	.LM16:
 193 013e E091 0000 		lds r30,SvNextLiveArr
 194 0142 F0E0      		ldi r31,lo8(0)
 195 0144 2050      		subi r18,lo8(-(SvNoteWaveLength78K))
 196 0146 3040      		sbci r19,hi8(-(SvNoteWaveLength78K))
 197 0148 D901      		movw r26,r18
 198 014a 8C91      		ld r24,X
 199 014c E050      		subi r30,lo8(-(SvArrayElements))
 200 014e F040      		sbci r31,hi8(-(SvArrayElements))
 201 0150 8083      		st Z,r24
 202               	.LM17:
 203 0152 E091 0000 		lds r30,SvNextLiveArr
 204 0156 F0E0      		ldi r31,lo8(0)
 205 0158 E050      		subi r30,lo8(-(SvNoteFactor))
 206 015a F040      		sbci r31,hi8(-(SvNoteFactor))
 207 015c 2081      		ld r18,Z
 208               	.LM18:
 209 015e E091 0000 		lds r30,SvNextLiveArr
 210 0162 F0E0      		ldi r31,lo8(0)
 211 0164 E050      		subi r30,lo8(-(SvArrayElements))
 212 0166 F040      		sbci r31,hi8(-(SvArrayElements))
 213 0168 8081      		ld r24,Z
 214 016a 8823      		tst r24
 215 016c 01F0      		breq .L6
 216 016e 81E0      		ldi r24,lo8(1)
 217 0170 90E0      		ldi r25,hi8(1)
 218 0172 00C0      		rjmp 2f
 219 0174 880F      	1:	lsl r24
 220 0176 991F      		rol r25
 221 0178 2A95      	2:	dec r18
 222 017a 02F4      		brpl 1b
 223 017c C82E      		mov r12,r24
 224 017e DD24      		clr r13
 225 0180 EE24      		clr r14
 226               	.LVL6:
 227               	.LM19:
 228 0182 88E0      		ldi r24,lo8(8)
 229 0184 882E      		mov r8,r24
 230 0186 912C      		mov r9,__zero_reg__
 231               	.L5:
 232               	.LM20:
 233 0188 0E2D      		mov r16,r14
 234 018a 10E0      		ldi r17,lo8(0)
 235               	.LM21:
 236 018c E091 0000 		lds r30,SvNextLiveArr
 237 0190 F0E0      		ldi r31,lo8(0)
 238 0192 E050      		subi r30,lo8(-(SvArrayElements))
 239 0194 F040      		sbci r31,hi8(-(SvArrayElements))
 240 0196 6081      		ld r22,Z
 241               	.LM22:
 242 0198 E091 0000 		lds r30,SvNextLiveArr
 243 019c F0E0      		ldi r31,lo8(0)
 244 019e E050      		subi r30,lo8(-(SvArrayElements))
 245 01a0 F040      		sbci r31,hi8(-(SvArrayElements))
 246 01a2 4081      		ld r20,Z
 247 01a4 E091 0000 		lds r30,SvNextLiveArr
 248 01a8 F0E0      		ldi r31,lo8(0)
 249 01aa E050      		subi r30,lo8(-(SvNoteFactor))
 250 01ac F040      		sbci r31,hi8(-(SvNoteFactor))
 251 01ae E081      		ld r30,Z
 252               	.LM23:
 253 01b0 F090 0000 		lds r15,SvNextLiveArr
 254 01b4 80E0      		ldi r24,lo8(0)
 255 01b6 9E2D      		mov r25,r14
 256               	.LVL7:
 257 01b8 70E0      		ldi r23,lo8(0)
 258 01ba 0E94 0000 		call __udivmodhi4
 259 01be 262F      		mov r18,r22
 260 01c0 30E0      		ldi r19,lo8(0)
 261 01c2 0C9D      		mul r16,r12
 262 01c4 C001      		movw r24,r0
 263 01c6 0D9D      		mul r16,r13
 264 01c8 900D      		add r25,r0
 265 01ca 1C9D      		mul r17,r12
 266 01cc 900D      		add r25,r0
 267 01ce 1124      		clr r1
 268 01d0 642F      		mov r22,r20
 269 01d2 70E0      		ldi r23,lo8(0)
 270 01d4 0E94 0000 		call __udivmodhi4
 271 01d8 C401      		movw r24,r8
 272 01da 8E1B      		sub r24,r30
 273 01dc 9109      		sbc r25,__zero_reg__
 274 01de 00C0      		rjmp 2f
 275 01e0 660F      	1:	lsl r22
 276 01e2 771F      		rol r23
 277 01e4 8A95      	2:	dec r24
 278 01e6 02F4      		brpl 1b
 279 01e8 261B      		sub r18,r22
 280 01ea 3109      		sbc r19,__zero_reg__
 281 01ec 2C9D      		mul r18,r12
 282 01ee F001      		movw r30,r0
 283 01f0 2D9D      		mul r18,r13
 284 01f2 F00D      		add r31,r0
 285 01f4 3C9D      		mul r19,r12
 286 01f6 F00D      		add r31,r0
 287 01f8 1124      		clr r1
 288 01fa E050      		subi r30,lo8(-(SvSineWaveLookup256))
 289 01fc F040      		sbci r31,hi8(-(SvSineWaveLookup256))
 290 01fe 8081      		ld r24,Z
 291 0200 90E0      		ldi r25,lo8(0)
 292 0202 FC01      		movw r30,r24
 293 0204 EA9D      		mul r30,r10
 294 0206 C001      		movw r24,r0
 295 0208 EB9D      		mul r30,r11
 296 020a 900D      		add r25,r0
 297 020c FA9D      		mul r31,r10
 298 020e 900D      		add r25,r0
 299 0210 1124      		clr r1
 300 0212 3F2D      		mov r19,r15
 301 0214 20E0      		ldi r18,lo8(0)
 302 0216 020F      		add r16,r18
 303 0218 131F      		adc r17,r19
 304 021a 0050      		subi r16,lo8(-(SvPlayArray))
 305 021c 1040      		sbci r17,hi8(-(SvPlayArray))
 306 021e D801      		movw r26,r16
 307 0220 9C93      		st X,r25
 308               	.LM24:
 309 0222 E394      		inc r14
 310               	.LVL8:
 311 0224 E091 0000 		lds r30,SvNextLiveArr
 312 0228 F0E0      		ldi r31,lo8(0)
 313 022a E050      		subi r30,lo8(-(SvArrayElements))
 314 022c F040      		sbci r31,hi8(-(SvArrayElements))
 315 022e 8081      		ld r24,Z
 316 0230 E816      		cp r14,r24
 317 0232 00F4      		brsh .+2
 318 0234 00C0      		rjmp .L5
 319 0236 00C0      		rjmp .L6
 320               	.LFE3:
 322               	.global	Start_Timer0_PWM
 324               	Start_Timer0_PWM:
 325               	.LFB4:
 326               	.LM25:
 327               	/* prologue: function */
 328               	/* frame size = 0 */
 329               	.LM26:
 330 0238 80E4      		ldi r24,lo8(64)
 331 023a 8AB9      		out 42-32,r24
 332               	.LM27:
 333 023c 84B5      		in r24,68-32
 334 023e 8360      		ori r24,lo8(3)
 335 0240 84BD      		out 68-32,r24
 336               	.LM28:
 337 0242 84B5      		in r24,68-32
 338 0244 8068      		ori r24,lo8(-128)
 339 0246 84BD      		out 68-32,r24
 340               	.LM29:
 341 0248 EEE6      		ldi r30,lo8(110)
 342 024a F0E0      		ldi r31,hi8(110)
 343 024c 8081      		ld r24,Z
 344 024e 8160      		ori r24,lo8(1)
 345 0250 8083      		st Z,r24
 346               	.LM30:
 347 0252 17BC      		out 71-32,__zero_reg__
 348               	.LM31:
 349 0254 85B5      		in r24,69-32
 350 0256 8160      		ori r24,lo8(1)
 351 0258 85BD      		out 69-32,r24
 352               	/* epilogue start */
 353               	.LM32:
 354 025a 0895      		ret
 355               	.LFE4:
 357               	.global	main
 359               	main:
 360               	.LFB2:
 361               	.LM33:
 362 025c 1F93      		push r17
 363               	/* prologue: function */
 364               	/* frame size = 0 */
 365               	.LM34:
 366 025e 81E3      		ldi r24,lo8(305)
 367 0260 91E0      		ldi r25,hi8(305)
 368 0262 9093 0000 		sts (SvDurationResolution)+1,r25
 369 0266 8093 0000 		sts SvDurationResolution,r24
 370               	.LM35:
 371 026a 9093 0000 		sts (SvDurationResolution+2)+1,r25
 372 026e 8093 0000 		sts SvDurationResolution+2,r24
 373               	.LM36:
 374 0272 86E0      		ldi r24,lo8(6)
 375 0274 8093 0000 		sts SvNumberOfNotesToPlay,r24
 376               	.LM37:
 377 0278 87E2      		ldi r24,lo8(39)
 378 027a 8093 0000 		sts SvNotesToPlay,r24
 379               	.LM38:
 380 027e 80E4      		ldi r24,lo8(64)
 381 0280 90E0      		ldi r25,hi8(64)
 382 0282 582F      		mov r21,r24
 383 0284 9093 0000 		sts (SvNotesToPlay+1)+1,r25
 384 0288 8093 0000 		sts SvNotesToPlay+1,r24
 385               	.LM39:
 386 028c 2FE7      		ldi r18,lo8(127)
 387 028e 30E0      		ldi r19,hi8(127)
 388 0290 722F      		mov r23,r18
 389 0292 3093 0000 		sts (SvNotesToPlay+3)+1,r19
 390 0296 2093 0000 		sts SvNotesToPlay+3,r18
 391               	.LM40:
 392 029a 4AE2      		ldi r20,lo8(42)
 393 029c 4093 0000 		sts SvNotesToPlay+5,r20
 394               	.LM41:
 395 02a0 9093 0000 		sts (SvNotesToPlay+6)+1,r25
 396 02a4 8093 0000 		sts SvNotesToPlay+6,r24
 397               	.LM42:
 398 02a8 3093 0000 		sts (SvNotesToPlay+8)+1,r19
 399 02ac 2093 0000 		sts SvNotesToPlay+8,r18
 400               	.LM43:
 401 02b0 4DE2      		ldi r20,lo8(45)
 402 02b2 4093 0000 		sts SvNotesToPlay+10,r20
 403               	.LM44:
 404 02b6 9093 0000 		sts (SvNotesToPlay+11)+1,r25
 405 02ba 8093 0000 		sts SvNotesToPlay+11,r24
 406               	.LM45:
 407 02be 3093 0000 		sts (SvNotesToPlay+13)+1,r19
 408 02c2 2093 0000 		sts SvNotesToPlay+13,r18
 409               	.LM46:
 410 02c6 40E3      		ldi r20,lo8(48)
 411 02c8 4093 0000 		sts SvNotesToPlay+15,r20
 412               	.LM47:
 413 02cc 9093 0000 		sts (SvNotesToPlay+16)+1,r25
 414 02d0 8093 0000 		sts SvNotesToPlay+16,r24
 415               	.LM48:
 416 02d4 3093 0000 		sts (SvNotesToPlay+18)+1,r19
 417 02d8 2093 0000 		sts SvNotesToPlay+18,r18
 418               	.LM49:
 419 02dc 43E3      		ldi r20,lo8(51)
 420 02de 4093 0000 		sts SvNotesToPlay+20,r20
 421               	.LM50:
 422 02e2 9093 0000 		sts (SvNotesToPlay+21)+1,r25
 423 02e6 8093 0000 		sts SvNotesToPlay+21,r24
 424               	.LM51:
 425 02ea 3093 0000 		sts (SvNotesToPlay+23)+1,r19
 426 02ee 2093 0000 		sts SvNotesToPlay+23,r18
 427               	.LM52:
 428 02f2 46E3      		ldi r20,lo8(54)
 429 02f4 4093 0000 		sts SvNotesToPlay+25,r20
 430               	.LM53:
 431 02f8 9093 0000 		sts (SvNotesToPlay+26)+1,r25
 432 02fc 8093 0000 		sts SvNotesToPlay+26,r24
 433               	.LM54:
 434 0300 3093 0000 		sts (SvNotesToPlay+28)+1,r19
 435 0304 2093 0000 		sts SvNotesToPlay+28,r18
 436               	.LM55:
 437 0308 1092 0000 		sts SvLiveArr,__zero_reg__
 438               	.LM56:
 439 030c 81E0      		ldi r24,lo8(1)
 440 030e 8093 0000 		sts SvNextLiveArr,r24
 441               	.LM57:
 442 0312 47E2      		ldi r20,lo8(39)
 443 0314 6091 0000 		lds r22,SvNotesToPlay+2
 444 0318 8091 0000 		lds r24,SvNotesToPlay+4
 445 031c 0E94 0000 		call SfToneGenerator
 446               	.LM58:
 447               	/* #APP */
 448               	 ;  187 "sp_mini_speaker.c" 1
 449 0320 7894      		sei
 450               	 ;  0 "" 2
 451               	.LM59:
 452               	/* #NOAPP */
 453 0322 0E94 0000 		call Start_Timer0_PWM
 454               	.LM60:
 455 0326 81E0      		ldi r24,lo8(1)
 456 0328 8093 0000 		sts SvStartCalculatingNextNote,r24
 457 032c 10E0      		ldi r17,lo8(0)
 458               	.LVL9:
 459               	.L18:
 460               	.LM61:
 461 032e 8091 0000 		lds r24,SvStartCalculatingNextNote
 462 0332 8130      		cpi r24,lo8(1)
 463 0334 01F4      		brne .L18
 464               	.LM62:
 465 0336 1092 0000 		sts SvArrayLiveCounter,__zero_reg__
 466               	.LM63:
 467 033a 1092 0000 		sts SvFactor78KCounter,__zero_reg__
 468               	.LM64:
 469 033e 1092 0000 		sts (SvLive78kCyclesCounter)+1,__zero_reg__
 470 0342 1092 0000 		sts SvLive78kCyclesCounter,__zero_reg__
 471               	.LM65:
 472 0346 1092 0000 		sts SvLiveNoteDurationCounter,__zero_reg__
 473               	.LM66:
 474 034a 812F      		mov r24,r17
 475 034c 90E0      		ldi r25,lo8(0)
 476               	.LVL10:
 477 034e FC01      		movw r30,r24
 478 0350 EE0F      		lsl r30
 479 0352 FF1F      		rol r31
 480 0354 EE0F      		lsl r30
 481 0356 FF1F      		rol r31
 482 0358 E80F      		add r30,r24
 483 035a F91F      		adc r31,r25
 484 035c E050      		subi r30,lo8(-(SvNotesToPlay))
 485 035e F040      		sbci r31,hi8(-(SvNotesToPlay))
 486 0360 4081      		ld r20,Z
 487 0362 5181      		ldd r21,Z+1
 488 0364 6281      		ldd r22,Z+2
 489 0366 7381      		ldd r23,Z+3
 490 0368 8481      		ldd r24,Z+4
 491 036a 0E94 0000 		call SfToneGenerator
 492               	.LVL11:
 493               	.LM67:
 494 036e 8091 0000 		lds r24,SvNumberOfNotesToPlay
 495 0372 8117      		cp r24,r17
 496 0374 01F4      		brne .L19
 497               	.LM68:
 498 0376 10E0      		ldi r17,lo8(0)
 499 0378 00C0      		rjmp .L18
 500               	.L19:
 501               	.LM69:
 502 037a 1F5F      		subi r17,lo8(-(1))
 503 037c 00C0      		rjmp .L18
 504               	.LFE2:
 506               	.global	__vector_16
 508               	__vector_16:
 509               	.LFB5:
 510               	.LM70:
 511 037e 1F92      		push __zero_reg__
 512 0380 0F92      		push r0
 513 0382 0FB6      		in r0,__SREG__
 514 0384 0F92      		push r0
 515 0386 1124      		clr __zero_reg__
 516 0388 2F93      		push r18
 517 038a 3F93      		push r19
 518 038c 4F93      		push r20
 519 038e 8F93      		push r24
 520 0390 9F93      		push r25
 521 0392 EF93      		push r30
 522 0394 FF93      		push r31
 523               	/* prologue: Signal */
 524               	/* frame size = 0 */
 525               	.LM71:
 526 0396 E091 0000 		lds r30,SvLiveArr
 527 039a F0E0      		ldi r31,lo8(0)
 528 039c E050      		subi r30,lo8(-(SvNoteHighNOTLow))
 529 039e F040      		sbci r31,hi8(-(SvNoteHighNOTLow))
 530 03a0 8081      		ld r24,Z
 531 03a2 8823      		tst r24
 532 03a4 01F4      		brne .L45
 533               	.LM72:
 534 03a6 2091 0000 		lds r18,SvFactor78KCounter
 535 03aa E091 0000 		lds r30,SvLiveArr
 536 03ae F0E0      		ldi r31,lo8(0)
 537 03b0 E050      		subi r30,lo8(-(SvNoteFactor))
 538 03b2 F040      		sbci r31,hi8(-(SvNoteFactor))
 539 03b4 4081      		ld r20,Z
 540 03b6 30E0      		ldi r19,lo8(0)
 541 03b8 81E0      		ldi r24,lo8(1)
 542 03ba 90E0      		ldi r25,hi8(1)
 543 03bc 00C0      		rjmp 2f
 544 03be 880F      	1:	lsl r24
 545 03c0 991F      		rol r25
 546 03c2 4A95      	2:	dec r20
 547 03c4 02F4      		brpl 1b
 548 03c6 0197      		sbiw r24,1
 549 03c8 2817      		cp r18,r24
 550 03ca 3907      		cpc r19,r25
 551 03cc 01F0      		breq .L46
 552               	.LM73:
 553 03ce 8091 0000 		lds r24,SvFactor78KCounter
 554 03d2 8F5F      		subi r24,lo8(-(1))
 555 03d4 8093 0000 		sts SvFactor78KCounter,r24
 556 03d8 00C0      		rjmp .L31
 557               	.L46:
 558               	.LM74:
 559 03da 1092 0000 		sts SvFactor78KCounter,__zero_reg__
 560               	.L45:
 561               	.LM75:
 562 03de 8091 0000 		lds r24,SvLiveArr
 563 03e2 9091 0000 		lds r25,SvArrayLiveCounter
 564 03e6 F82F      		mov r31,r24
 565 03e8 E0E0      		ldi r30,lo8(0)
 566 03ea E90F      		add r30,r25
 567 03ec F11D      		adc r31,__zero_reg__
 568 03ee E050      		subi r30,lo8(-(SvPlayArray))
 569 03f0 F040      		sbci r31,hi8(-(SvPlayArray))
 570 03f2 8081      		ld r24,Z
 571 03f4 87BD      		out 71-32,r24
 572               	.LM76:
 573 03f6 E091 0000 		lds r30,SvLiveArr
 574 03fa F0E0      		ldi r31,lo8(0)
 575 03fc E050      		subi r30,lo8(-(SvArrayElements))
 576 03fe F040      		sbci r31,hi8(-(SvArrayElements))
 577 0400 9081      		ld r25,Z
 578 0402 8091 0000 		lds r24,SvArrayLiveCounter
 579 0406 9817      		cp r25,r24
 580 0408 01F0      		breq .L47
 581               	.LM77:
 582 040a 8091 0000 		lds r24,SvArrayLiveCounter
 583 040e 8F5F      		subi r24,lo8(-(1))
 584 0410 8093 0000 		sts SvArrayLiveCounter,r24
 585               	.L31:
 586               	.LM78:
 587 0414 E091 0000 		lds r30,SvLiveArr
 588 0418 F0E0      		ldi r31,lo8(0)
 589 041a EE0F      		lsl r30
 590 041c FF1F      		rol r31
 591 041e E050      		subi r30,lo8(-(SvDurationResolution))
 592 0420 F040      		sbci r31,hi8(-(SvDurationResolution))
 593 0422 2081      		ld r18,Z
 594 0424 3181      		ldd r19,Z+1
 595 0426 8091 0000 		lds r24,SvLive78kCyclesCounter
 596 042a 9091 0000 		lds r25,(SvLive78kCyclesCounter)+1
 597 042e 2817      		cp r18,r24
 598 0430 3907      		cpc r19,r25
 599 0432 01F0      		breq .L48
 600               	.LM79:
 601 0434 8091 0000 		lds r24,SvLive78kCyclesCounter
 602 0438 9091 0000 		lds r25,(SvLive78kCyclesCounter)+1
 603 043c 0196      		adiw r24,1
 604 043e 9093 0000 		sts (SvLive78kCyclesCounter)+1,r25
 605 0442 8093 0000 		sts SvLive78kCyclesCounter,r24
 606               	.L36:
 607               	/* epilogue start */
 608               	.LM80:
 609 0446 FF91      		pop r31
 610 0448 EF91      		pop r30
 611 044a 9F91      		pop r25
 612 044c 8F91      		pop r24
 613 044e 4F91      		pop r20
 614 0450 3F91      		pop r19
 615 0452 2F91      		pop r18
 616 0454 0F90      		pop r0
 617 0456 0FBE      		out __SREG__,r0
 618 0458 0F90      		pop r0
 619 045a 1F90      		pop __zero_reg__
 620 045c 1895      		reti
 621               	.L47:
 622               	.LM81:
 623 045e 1092 0000 		sts SvArrayLiveCounter,__zero_reg__
 624 0462 00C0      		rjmp .L31
 625               	.L48:
 626               	.LM82:
 627 0464 1092 0000 		sts (SvLive78kCyclesCounter)+1,__zero_reg__
 628 0468 1092 0000 		sts SvLive78kCyclesCounter,__zero_reg__
 629               	.LM83:
 630 046c E091 0000 		lds r30,SvLiveArr
 631 0470 F0E0      		ldi r31,lo8(0)
 632 0472 E050      		subi r30,lo8(-(SvArrNoteDuration))
 633 0474 F040      		sbci r31,hi8(-(SvArrNoteDuration))
 634 0476 9081      		ld r25,Z
 635 0478 8091 0000 		lds r24,SvLiveNoteDurationCounter
 636 047c 9817      		cp r25,r24
 637 047e 01F0      		breq .L49
 638               	.LM84:
 639 0480 8091 0000 		lds r24,SvLiveNoteDurationCounter
 640 0484 8F5F      		subi r24,lo8(-(1))
 641 0486 8093 0000 		sts SvLiveNoteDurationCounter,r24
 642 048a 00C0      		rjmp .L36
 643               	.L49:
 644               	.LM85:
 645 048c 1092 0000 		sts SvLiveNoteDurationCounter,__zero_reg__
 646               	.LM86:
 647 0490 8091 0000 		lds r24,SvLiveArr
 648 0494 8130      		cpi r24,lo8(1)
 649 0496 01F0      		breq .L50
 650               	.LM87:
 651 0498 81E0      		ldi r24,lo8(1)
 652 049a 8093 0000 		sts SvLiveArr,r24
 653               	.LM88:
 654 049e 1092 0000 		sts SvNextLiveArr,__zero_reg__
 655               	.L35:
 656               	.LM89:
 657 04a2 81E0      		ldi r24,lo8(1)
 658 04a4 8093 0000 		sts SvStartCalculatingNextNote,r24
 659 04a8 00C0      		rjmp .L36
 660               	.L50:
 661               	.LM90:
 662 04aa 1092 0000 		sts SvLiveArr,__zero_reg__
 663               	.LM91:
 664 04ae 8093 0000 		sts SvNextLiveArr,r24
 665 04b2 00C0      		rjmp .L35
 666               	.LFE5:
 668               	.global	SvNoteWaveLength78K
 669               		.data
 672               	SvNoteWaveLength78K:
 673 0000 FB        		.byte	-5
 674 0001 ED        		.byte	-19
 675 0002 E0        		.byte	-32
 676 0003 D3        		.byte	-45
 677 0004 C7        		.byte	-57
 678 0005 BC        		.byte	-68
 679 0006 B2        		.byte	-78
 680 0007 A8        		.byte	-88
 681 0008 9E        		.byte	-98
 682 0009 95        		.byte	-107
 683 000a 8D        		.byte	-115
 684 000b 85        		.byte	-123
 685 000c FB        		.byte	-5
 686 000d ED        		.byte	-19
 687 000e E0        		.byte	-32
 688 000f D3        		.byte	-45
 689 0010 C7        		.byte	-57
 690 0011 BC        		.byte	-68
 691 0012 B2        		.byte	-78
 692 0013 A8        		.byte	-88
 693 0014 9E        		.byte	-98
 694 0015 95        		.byte	-107
 695 0016 8D        		.byte	-115
 696 0017 85        		.byte	-123
 697 0018 FB        		.byte	-5
 698 0019 ED        		.byte	-19
 699 001a E0        		.byte	-32
 700 001b D3        		.byte	-45
 701 001c C7        		.byte	-57
 702 001d BC        		.byte	-68
 703 001e B2        		.byte	-78
 704 001f A8        		.byte	-88
 705 0020 9E        		.byte	-98
 706 0021 95        		.byte	-107
 707 0022 8D        		.byte	-115
 708 0023 85        		.byte	-123
 709 0024 FB        		.byte	-5
 710 0025 ED        		.byte	-19
 711 0026 E0        		.byte	-32
 712 0027 D3        		.byte	-45
 713 0028 C7        		.byte	-57
 714 0029 BC        		.byte	-68
 715 002a B2        		.byte	-78
 716 002b A8        		.byte	-88
 717 002c 9E        		.byte	-98
 718 002d 95        		.byte	-107
 719 002e 8D        		.byte	-115
 720 002f 85        		.byte	-123
 721 0030 FB        		.byte	-5
 722 0031 ED        		.byte	-19
 723 0032 E0        		.byte	-32
 724 0033 D3        		.byte	-45
 725 0034 C7        		.byte	-57
 726 0035 BC        		.byte	-68
 727 0036 B2        		.byte	-78
 728 0037 A8        		.byte	-88
 729 0038 9E        		.byte	-98
 730 0039 95        		.byte	-107
 731 003a 8D        		.byte	-115
 732 003b 85        		.byte	-123
 733 003c FB        		.byte	-5
 734 003d ED        		.byte	-19
 735 003e E0        		.byte	-32
 736 003f D3        		.byte	-45
 737 0040 C7        		.byte	-57
 738 0041 BC        		.byte	-68
 739 0042 B2        		.byte	-78
 740 0043 A8        		.byte	-88
 741 0044 9E        		.byte	-98
 742 0045 95        		.byte	-107
 743 0046 8D        		.byte	-115
 744 0047 85        		.byte	-123
 745 0048 FB        		.byte	-5
 746 0049 ED        		.byte	-19
 747 004a E0        		.byte	-32
 748 004b D3        		.byte	-45
 749 004c C7        		.byte	-57
 750 004d BC        		.byte	-68
 751 004e B2        		.byte	-78
 752 004f A8        		.byte	-88
 753 0050 9E        		.byte	-98
 754 0051 95        		.byte	-107
 755 0052 8D        		.byte	-115
 756 0053 85        		.byte	-123
 757 0054 FB        		.byte	-5
 758 0055 ED        		.byte	-19
 759 0056 E0        		.byte	-32
 760 0057 D3        		.byte	-45
 761 0058 C7        		.byte	-57
 762 0059 BC        		.byte	-68
 763 005a B2        		.byte	-78
 764 005b A8        		.byte	-88
 765 005c 9E        		.byte	-98
 766 005d 95        		.byte	-107
 767 005e 8D        		.byte	-115
 768 005f 85        		.byte	-123
 769 0060 FB        		.byte	-5
 770 0061 ED        		.byte	-19
 771 0062 E0        		.byte	-32
 772 0063 D3        		.byte	-45
 773 0064 C7        		.byte	-57
 774 0065 BC        		.byte	-68
 775 0066 B2        		.byte	-78
 776 0067 A8        		.byte	-88
 777 0068 9E        		.byte	-98
 778 0069 95        		.byte	-107
 779 006a 8D        		.byte	-115
 780 006b 85        		.byte	-123
 781 006c FB        		.byte	-5
 782 006d ED        		.byte	-19
 783 006e E0        		.byte	-32
 784 006f D3        		.byte	-45
 785 0070 C7        		.byte	-57
 786 0071 BC        		.byte	-68
 787 0072 B2        		.byte	-78
 788 0073 A8        		.byte	-88
 789 0074 9E        		.byte	-98
 790 0075 95        		.byte	-107
 791 0076 8D        		.byte	-115
 792 0077 85        		.byte	-123
 793 0078 FB        		.byte	-5
 794 0079 ED        		.byte	-19
 795               	.global	SvSineWaveLookup256
 798               	SvSineWaveLookup256:
 799 007a 7F        		.byte	127
 800 007b 83        		.byte	-125
 801 007c 86        		.byte	-122
 802 007d 89        		.byte	-119
 803 007e 8C        		.byte	-116
 804 007f 8F        		.byte	-113
 805 0080 92        		.byte	-110
 806 0081 95        		.byte	-107
 807 0082 98        		.byte	-104
 808 0083 9B        		.byte	-101
 809 0084 9E        		.byte	-98
 810 0085 A2        		.byte	-94
 811 0086 A5        		.byte	-91
 812 0087 A7        		.byte	-89
 813 0088 AA        		.byte	-86
 814 0089 AD        		.byte	-83
 815 008a B0        		.byte	-80
 816 008b B3        		.byte	-77
 817 008c B6        		.byte	-74
 818 008d B9        		.byte	-71
 819 008e BC        		.byte	-68
 820 008f BE        		.byte	-66
 821 0090 C1        		.byte	-63
 822 0091 C4        		.byte	-60
 823 0092 C6        		.byte	-58
 824 0093 C9        		.byte	-55
 825 0094 CB        		.byte	-53
 826 0095 CE        		.byte	-50
 827 0096 D0        		.byte	-48
 828 0097 D3        		.byte	-45
 829 0098 D5        		.byte	-43
 830 0099 D7        		.byte	-41
 831 009a DA        		.byte	-38
 832 009b DC        		.byte	-36
 833 009c DE        		.byte	-34
 834 009d E0        		.byte	-32
 835 009e E2        		.byte	-30
 836 009f E4        		.byte	-28
 837 00a0 E6        		.byte	-26
 838 00a1 E8        		.byte	-24
 839 00a2 EA        		.byte	-22
 840 00a3 EB        		.byte	-21
 841 00a4 ED        		.byte	-19
 842 00a5 EE        		.byte	-18
 843 00a6 F0        		.byte	-16
 844 00a7 F1        		.byte	-15
 845 00a8 F3        		.byte	-13
 846 00a9 F4        		.byte	-12
 847 00aa F5        		.byte	-11
 848 00ab F6        		.byte	-10
 849 00ac F8        		.byte	-8
 850 00ad F9        		.byte	-7
 851 00ae FA        		.byte	-6
 852 00af FA        		.byte	-6
 853 00b0 FB        		.byte	-5
 854 00b1 FC        		.byte	-4
 855 00b2 FD        		.byte	-3
 856 00b3 FD        		.byte	-3
 857 00b4 FE        		.byte	-2
 858 00b5 FE        		.byte	-2
 859 00b6 FE        		.byte	-2
 860 00b7 FF        		.byte	-1
 861 00b8 FF        		.byte	-1
 862 00b9 FF        		.byte	-1
 863 00ba FF        		.byte	-1
 864 00bb FF        		.byte	-1
 865 00bc FF        		.byte	-1
 866 00bd FF        		.byte	-1
 867 00be FE        		.byte	-2
 868 00bf FE        		.byte	-2
 869 00c0 FE        		.byte	-2
 870 00c1 FD        		.byte	-3
 871 00c2 FD        		.byte	-3
 872 00c3 FC        		.byte	-4
 873 00c4 FB        		.byte	-5
 874 00c5 FA        		.byte	-6
 875 00c6 FA        		.byte	-6
 876 00c7 F9        		.byte	-7
 877 00c8 F8        		.byte	-8
 878 00c9 F6        		.byte	-10
 879 00ca F5        		.byte	-11
 880 00cb F4        		.byte	-12
 881 00cc F3        		.byte	-13
 882 00cd F1        		.byte	-15
 883 00ce F0        		.byte	-16
 884 00cf EE        		.byte	-18
 885 00d0 ED        		.byte	-19
 886 00d1 EB        		.byte	-21
 887 00d2 EA        		.byte	-22
 888 00d3 E8        		.byte	-24
 889 00d4 E6        		.byte	-26
 890 00d5 E4        		.byte	-28
 891 00d6 E2        		.byte	-30
 892 00d7 E0        		.byte	-32
 893 00d8 DE        		.byte	-34
 894 00d9 DC        		.byte	-36
 895 00da DA        		.byte	-38
 896 00db D7        		.byte	-41
 897 00dc D5        		.byte	-43
 898 00dd D3        		.byte	-45
 899 00de D0        		.byte	-48
 900 00df CE        		.byte	-50
 901 00e0 CB        		.byte	-53
 902 00e1 C9        		.byte	-55
 903 00e2 C6        		.byte	-58
 904 00e3 C4        		.byte	-60
 905 00e4 C1        		.byte	-63
 906 00e5 BE        		.byte	-66
 907 00e6 BC        		.byte	-68
 908 00e7 B9        		.byte	-71
 909 00e8 B6        		.byte	-74
 910 00e9 B3        		.byte	-77
 911 00ea B0        		.byte	-80
 912 00eb AD        		.byte	-83
 913 00ec AA        		.byte	-86
 914 00ed A7        		.byte	-89
 915 00ee A5        		.byte	-91
 916 00ef A2        		.byte	-94
 917 00f0 9E        		.byte	-98
 918 00f1 9B        		.byte	-101
 919 00f2 98        		.byte	-104
 920 00f3 95        		.byte	-107
 921 00f4 92        		.byte	-110
 922 00f5 8F        		.byte	-113
 923 00f6 8C        		.byte	-116
 924 00f7 89        		.byte	-119
 925 00f8 86        		.byte	-122
 926 00f9 83        		.byte	-125
 927 00fa 7F        		.byte	127
 928 00fb 7C        		.byte	124
 929 00fc 79        		.byte	121
 930 00fd 76        		.byte	118
 931 00fe 73        		.byte	115
 932 00ff 70        		.byte	112
 933 0100 6D        		.byte	109
 934 0101 6A        		.byte	106
 935 0102 67        		.byte	103
 936 0103 64        		.byte	100
 937 0104 61        		.byte	97
 938 0105 5D        		.byte	93
 939 0106 5A        		.byte	90
 940 0107 58        		.byte	88
 941 0108 55        		.byte	85
 942 0109 52        		.byte	82
 943 010a 4F        		.byte	79
 944 010b 4C        		.byte	76
 945 010c 49        		.byte	73
 946 010d 46        		.byte	70
 947 010e 43        		.byte	67
 948 010f 41        		.byte	65
 949 0110 3E        		.byte	62
 950 0111 3B        		.byte	59
 951 0112 39        		.byte	57
 952 0113 36        		.byte	54
 953 0114 34        		.byte	52
 954 0115 31        		.byte	49
 955 0116 2F        		.byte	47
 956 0117 2C        		.byte	44
 957 0118 2A        		.byte	42
 958 0119 28        		.byte	40
 959 011a 25        		.byte	37
 960 011b 23        		.byte	35
 961 011c 21        		.byte	33
 962 011d 1F        		.byte	31
 963 011e 1D        		.byte	29
 964 011f 1B        		.byte	27
 965 0120 19        		.byte	25
 966 0121 17        		.byte	23
 967 0122 15        		.byte	21
 968 0123 14        		.byte	20
 969 0124 12        		.byte	18
 970 0125 11        		.byte	17
 971 0126 0F        		.byte	15
 972 0127 0E        		.byte	14
 973 0128 0C        		.byte	12
 974 0129 0B        		.byte	11
 975 012a 0A        		.byte	10
 976 012b 09        		.byte	9
 977 012c 07        		.byte	7
 978 012d 06        		.byte	6
 979 012e 05        		.byte	5
 980 012f 05        		.byte	5
 981 0130 04        		.byte	4
 982 0131 03        		.byte	3
 983 0132 02        		.byte	2
 984 0133 02        		.byte	2
 985 0134 01        		.byte	1
 986 0135 01        		.byte	1
 987 0136 01        		.byte	1
 988 0137 00        		.byte	0
 989 0138 00        		.byte	0
 990 0139 00        		.byte	0
 991 013a 00        		.byte	0
 992 013b 00        		.byte	0
 993 013c 00        		.byte	0
 994 013d 00        		.byte	0
 995 013e 01        		.byte	1
 996 013f 01        		.byte	1
 997 0140 01        		.byte	1
 998 0141 02        		.byte	2
 999 0142 02        		.byte	2
 1000 0143 03        		.byte	3
 1001 0144 04        		.byte	4
 1002 0145 05        		.byte	5
 1003 0146 05        		.byte	5
 1004 0147 06        		.byte	6
 1005 0148 07        		.byte	7
 1006 0149 09        		.byte	9
 1007 014a 0A        		.byte	10
 1008 014b 0B        		.byte	11
 1009 014c 0C        		.byte	12
 1010 014d 0E        		.byte	14
 1011 014e 0F        		.byte	15
 1012 014f 11        		.byte	17
 1013 0150 12        		.byte	18
 1014 0151 14        		.byte	20
 1015 0152 15        		.byte	21
 1016 0153 17        		.byte	23
 1017 0154 19        		.byte	25
 1018 0155 1B        		.byte	27
 1019 0156 1D        		.byte	29
 1020 0157 1F        		.byte	31
 1021 0158 21        		.byte	33
 1022 0159 23        		.byte	35
 1023 015a 25        		.byte	37
 1024 015b 28        		.byte	40
 1025 015c 2A        		.byte	42
 1026 015d 2C        		.byte	44
 1027 015e 2F        		.byte	47
 1028 015f 31        		.byte	49
 1029 0160 34        		.byte	52
 1030 0161 36        		.byte	54
 1031 0162 39        		.byte	57
 1032 0163 3B        		.byte	59
 1033 0164 3E        		.byte	62
 1034 0165 41        		.byte	65
 1035 0166 43        		.byte	67
 1036 0167 46        		.byte	70
 1037 0168 49        		.byte	73
 1038 0169 4C        		.byte	76
 1039 016a 4F        		.byte	79
 1040 016b 52        		.byte	82
 1041 016c 55        		.byte	85
 1042 016d 58        		.byte	88
 1043 016e 5A        		.byte	90
 1044 016f 5D        		.byte	93
 1045 0170 61        		.byte	97
 1046 0171 64        		.byte	100
 1047 0172 67        		.byte	103
 1048 0173 6A        		.byte	106
 1049 0174 6D        		.byte	109
 1050 0175 70        		.byte	112
 1051 0176 73        		.byte	115
 1052 0177 76        		.byte	118
 1053 0178 79        		.byte	121
 1054 0179 7C        		.byte	124
 1055               	.global	SvPlayArray
 1058               	SvPlayArray:
 1059 017a 7F        		.byte	127
 1060 017b 83        		.byte	-125
 1061 017c 86        		.byte	-122
 1062 017d 89        		.byte	-119
 1063 017e 8C        		.byte	-116
 1064 017f 8F        		.byte	-113
 1065 0180 92        		.byte	-110
 1066 0181 95        		.byte	-107
 1067 0182 98        		.byte	-104
 1068 0183 9B        		.byte	-101
 1069 0184 9E        		.byte	-98
 1070 0185 A2        		.byte	-94
 1071 0186 A5        		.byte	-91
 1072 0187 A7        		.byte	-89
 1073 0188 AA        		.byte	-86
 1074 0189 AD        		.byte	-83
 1075 018a B0        		.byte	-80
 1076 018b B3        		.byte	-77
 1077 018c B6        		.byte	-74
 1078 018d B9        		.byte	-71
 1079 018e BC        		.byte	-68
 1080 018f BE        		.byte	-66
 1081 0190 C1        		.byte	-63
 1082 0191 C4        		.byte	-60
 1083 0192 C6        		.byte	-58
 1084 0193 C9        		.byte	-55
 1085 0194 CB        		.byte	-53
 1086 0195 CE        		.byte	-50
 1087 0196 D0        		.byte	-48
 1088 0197 D3        		.byte	-45
 1089 0198 D5        		.byte	-43
 1090 0199 D7        		.byte	-41
 1091 019a DA        		.byte	-38
 1092 019b DC        		.byte	-36
 1093 019c DE        		.byte	-34
 1094 019d E0        		.byte	-32
 1095 019e E2        		.byte	-30
 1096 019f E4        		.byte	-28
 1097 01a0 E6        		.byte	-26
 1098 01a1 E8        		.byte	-24
 1099 01a2 EA        		.byte	-22
 1100 01a3 EB        		.byte	-21
 1101 01a4 ED        		.byte	-19
 1102 01a5 EE        		.byte	-18
 1103 01a6 F0        		.byte	-16
 1104 01a7 F1        		.byte	-15
 1105 01a8 F3        		.byte	-13
 1106 01a9 F4        		.byte	-12
 1107 01aa F5        		.byte	-11
 1108 01ab F6        		.byte	-10
 1109 01ac F8        		.byte	-8
 1110 01ad F9        		.byte	-7
 1111 01ae FA        		.byte	-6
 1112 01af FA        		.byte	-6
 1113 01b0 FB        		.byte	-5
 1114 01b1 FC        		.byte	-4
 1115 01b2 FD        		.byte	-3
 1116 01b3 FD        		.byte	-3
 1117 01b4 FE        		.byte	-2
 1118 01b5 FE        		.byte	-2
 1119 01b6 FE        		.byte	-2
 1120 01b7 FF        		.byte	-1
 1121 01b8 FF        		.byte	-1
 1122 01b9 FF        		.byte	-1
 1123 01ba FF        		.byte	-1
 1124 01bb FF        		.byte	-1
 1125 01bc FF        		.byte	-1
 1126 01bd FF        		.byte	-1
 1127 01be FE        		.byte	-2
 1128 01bf FE        		.byte	-2
 1129 01c0 FE        		.byte	-2
 1130 01c1 FD        		.byte	-3
 1131 01c2 FD        		.byte	-3
 1132 01c3 FC        		.byte	-4
 1133 01c4 FB        		.byte	-5
 1134 01c5 FA        		.byte	-6
 1135 01c6 FA        		.byte	-6
 1136 01c7 F9        		.byte	-7
 1137 01c8 F8        		.byte	-8
 1138 01c9 F6        		.byte	-10
 1139 01ca F5        		.byte	-11
 1140 01cb F4        		.byte	-12
 1141 01cc F3        		.byte	-13
 1142 01cd F1        		.byte	-15
 1143 01ce F0        		.byte	-16
 1144 01cf EE        		.byte	-18
 1145 01d0 ED        		.byte	-19
 1146 01d1 EB        		.byte	-21
 1147 01d2 EA        		.byte	-22
 1148 01d3 E8        		.byte	-24
 1149 01d4 E6        		.byte	-26
 1150 01d5 E4        		.byte	-28
 1151 01d6 E2        		.byte	-30
 1152 01d7 E0        		.byte	-32
 1153 01d8 DE        		.byte	-34
 1154 01d9 DC        		.byte	-36
 1155 01da DA        		.byte	-38
 1156 01db D7        		.byte	-41
 1157 01dc D5        		.byte	-43
 1158 01dd D3        		.byte	-45
 1159 01de D0        		.byte	-48
 1160 01df CE        		.byte	-50
 1161 01e0 CB        		.byte	-53
 1162 01e1 C9        		.byte	-55
 1163 01e2 C6        		.byte	-58
 1164 01e3 C4        		.byte	-60
 1165 01e4 C1        		.byte	-63
 1166 01e5 BE        		.byte	-66
 1167 01e6 BC        		.byte	-68
 1168 01e7 B9        		.byte	-71
 1169 01e8 B6        		.byte	-74
 1170 01e9 B3        		.byte	-77
 1171 01ea B0        		.byte	-80
 1172 01eb AD        		.byte	-83
 1173 01ec AA        		.byte	-86
 1174 01ed A7        		.byte	-89
 1175 01ee A5        		.byte	-91
 1176 01ef A2        		.byte	-94
 1177 01f0 9E        		.byte	-98
 1178 01f1 9B        		.byte	-101
 1179 01f2 98        		.byte	-104
 1180 01f3 95        		.byte	-107
 1181 01f4 92        		.byte	-110
 1182 01f5 8F        		.byte	-113
 1183 01f6 8C        		.byte	-116
 1184 01f7 89        		.byte	-119
 1185 01f8 86        		.byte	-122
 1186 01f9 83        		.byte	-125
 1187 01fa 7F        		.byte	127
 1188 01fb 7C        		.byte	124
 1189 01fc 79        		.byte	121
 1190 01fd 76        		.byte	118
 1191 01fe 73        		.byte	115
 1192 01ff 70        		.byte	112
 1193 0200 6D        		.byte	109
 1194 0201 6A        		.byte	106
 1195 0202 67        		.byte	103
 1196 0203 64        		.byte	100
 1197 0204 61        		.byte	97
 1198 0205 5D        		.byte	93
 1199 0206 5A        		.byte	90
 1200 0207 58        		.byte	88
 1201 0208 55        		.byte	85
 1202 0209 52        		.byte	82
 1203 020a 4F        		.byte	79
 1204 020b 4C        		.byte	76
 1205 020c 49        		.byte	73
 1206 020d 46        		.byte	70
 1207 020e 43        		.byte	67
 1208 020f 41        		.byte	65
 1209 0210 3E        		.byte	62
 1210 0211 3B        		.byte	59
 1211 0212 39        		.byte	57
 1212 0213 36        		.byte	54
 1213 0214 34        		.byte	52
 1214 0215 31        		.byte	49
 1215 0216 2F        		.byte	47
 1216 0217 2C        		.byte	44
 1217 0218 2A        		.byte	42
 1218 0219 28        		.byte	40
 1219 021a 25        		.byte	37
 1220 021b 23        		.byte	35
 1221 021c 21        		.byte	33
 1222 021d 1F        		.byte	31
 1223 021e 1D        		.byte	29
 1224 021f 1B        		.byte	27
 1225 0220 19        		.byte	25
 1226 0221 17        		.byte	23
 1227 0222 15        		.byte	21
 1228 0223 14        		.byte	20
 1229 0224 12        		.byte	18
 1230 0225 11        		.byte	17
 1231 0226 0F        		.byte	15
 1232 0227 0E        		.byte	14
 1233 0228 0C        		.byte	12
 1234 0229 0B        		.byte	11
 1235 022a 0A        		.byte	10
 1236 022b 09        		.byte	9
 1237 022c 07        		.byte	7
 1238 022d 06        		.byte	6
 1239 022e 05        		.byte	5
 1240 022f 05        		.byte	5
 1241 0230 04        		.byte	4
 1242 0231 03        		.byte	3
 1243 0232 02        		.byte	2
 1244 0233 02        		.byte	2
 1245 0234 01        		.byte	1
 1246 0235 01        		.byte	1
 1247 0236 01        		.byte	1
 1248 0237 00        		.byte	0
 1249 0238 00        		.byte	0
 1250 0239 00        		.byte	0
 1251 023a 00        		.byte	0
 1252 023b 00        		.byte	0
 1253 023c 00        		.byte	0
 1254 023d 00        		.byte	0
 1255 023e 01        		.byte	1
 1256 023f 01        		.byte	1
 1257 0240 01        		.byte	1
 1258 0241 02        		.byte	2
 1259 0242 02        		.byte	2
 1260 0243 03        		.byte	3
 1261 0244 04        		.byte	4
 1262 0245 05        		.byte	5
 1263 0246 05        		.byte	5
 1264 0247 06        		.byte	6
 1265 0248 07        		.byte	7
 1266 0249 09        		.byte	9
 1267 024a 0A        		.byte	10
 1268 024b 0B        		.byte	11
 1269 024c 0C        		.byte	12
 1270 024d 0E        		.byte	14
 1271 024e 0F        		.byte	15
 1272 024f 11        		.byte	17
 1273 0250 12        		.byte	18
 1274 0251 14        		.byte	20
 1275 0252 15        		.byte	21
 1276 0253 17        		.byte	23
 1277 0254 19        		.byte	25
 1278 0255 1B        		.byte	27
 1279 0256 1D        		.byte	29
 1280 0257 1F        		.byte	31
 1281 0258 21        		.byte	33
 1282 0259 23        		.byte	35
 1283 025a 25        		.byte	37
 1284 025b 28        		.byte	40
 1285 025c 2A        		.byte	42
 1286 025d 2C        		.byte	44
 1287 025e 2F        		.byte	47
 1288 025f 31        		.byte	49
 1289 0260 34        		.byte	52
 1290 0261 36        		.byte	54
 1291 0262 39        		.byte	57
 1292 0263 3B        		.byte	59
 1293 0264 3E        		.byte	62
 1294 0265 41        		.byte	65
 1295 0266 43        		.byte	67
 1296 0267 46        		.byte	70
 1297 0268 49        		.byte	73
 1298 0269 4C        		.byte	76
 1299 026a 4F        		.byte	79
 1300 026b 52        		.byte	82
 1301 026c 55        		.byte	85
 1302 026d 58        		.byte	88
 1303 026e 5A        		.byte	90
 1304 026f 5D        		.byte	93
 1305 0270 61        		.byte	97
 1306 0271 64        		.byte	100
 1307 0272 67        		.byte	103
 1308 0273 6A        		.byte	106
 1309 0274 6D        		.byte	109
 1310 0275 70        		.byte	112
 1311 0276 73        		.byte	115
 1312 0277 76        		.byte	118
 1313 0278 79        		.byte	121
 1314 0279 7C        		.byte	124
 1315 027a 7F        		.byte	127
 1316 027b 83        		.byte	-125
 1317 027c 86        		.byte	-122
 1318 027d 89        		.byte	-119
 1319 027e 8C        		.byte	-116
 1320 027f 8F        		.byte	-113
 1321 0280 92        		.byte	-110
 1322 0281 95        		.byte	-107
 1323 0282 98        		.byte	-104
 1324 0283 9B        		.byte	-101
 1325 0284 9E        		.byte	-98
 1326 0285 A2        		.byte	-94
 1327 0286 A5        		.byte	-91
 1328 0287 A7        		.byte	-89
 1329 0288 AA        		.byte	-86
 1330 0289 AD        		.byte	-83
 1331 028a B0        		.byte	-80
 1332 028b B3        		.byte	-77
 1333 028c B6        		.byte	-74
 1334 028d B9        		.byte	-71
 1335 028e BC        		.byte	-68
 1336 028f BE        		.byte	-66
 1337 0290 C1        		.byte	-63
 1338 0291 C4        		.byte	-60
 1339 0292 C6        		.byte	-58
 1340 0293 C9        		.byte	-55
 1341 0294 CB        		.byte	-53
 1342 0295 CE        		.byte	-50
 1343 0296 D0        		.byte	-48
 1344 0297 D3        		.byte	-45
 1345 0298 D5        		.byte	-43
 1346 0299 D7        		.byte	-41
 1347 029a DA        		.byte	-38
 1348 029b DC        		.byte	-36
 1349 029c DE        		.byte	-34
 1350 029d E0        		.byte	-32
 1351 029e E2        		.byte	-30
 1352 029f E4        		.byte	-28
 1353 02a0 E6        		.byte	-26
 1354 02a1 E8        		.byte	-24
 1355 02a2 EA        		.byte	-22
 1356 02a3 EB        		.byte	-21
 1357 02a4 ED        		.byte	-19
 1358 02a5 EE        		.byte	-18
 1359 02a6 F0        		.byte	-16
 1360 02a7 F1        		.byte	-15
 1361 02a8 F3        		.byte	-13
 1362 02a9 F4        		.byte	-12
 1363 02aa F5        		.byte	-11
 1364 02ab F6        		.byte	-10
 1365 02ac F8        		.byte	-8
 1366 02ad F9        		.byte	-7
 1367 02ae FA        		.byte	-6
 1368 02af FA        		.byte	-6
 1369 02b0 FB        		.byte	-5
 1370 02b1 FC        		.byte	-4
 1371 02b2 FD        		.byte	-3
 1372 02b3 FD        		.byte	-3
 1373 02b4 FE        		.byte	-2
 1374 02b5 FE        		.byte	-2
 1375 02b6 FE        		.byte	-2
 1376 02b7 FF        		.byte	-1
 1377 02b8 FF        		.byte	-1
 1378 02b9 FF        		.byte	-1
 1379 02ba FF        		.byte	-1
 1380 02bb FF        		.byte	-1
 1381 02bc FF        		.byte	-1
 1382 02bd FF        		.byte	-1
 1383 02be FE        		.byte	-2
 1384 02bf FE        		.byte	-2
 1385 02c0 FE        		.byte	-2
 1386 02c1 FD        		.byte	-3
 1387 02c2 FD        		.byte	-3
 1388 02c3 FC        		.byte	-4
 1389 02c4 FB        		.byte	-5
 1390 02c5 FA        		.byte	-6
 1391 02c6 FA        		.byte	-6
 1392 02c7 F9        		.byte	-7
 1393 02c8 F8        		.byte	-8
 1394 02c9 F6        		.byte	-10
 1395 02ca F5        		.byte	-11
 1396 02cb F4        		.byte	-12
 1397 02cc F3        		.byte	-13
 1398 02cd F1        		.byte	-15
 1399 02ce F0        		.byte	-16
 1400 02cf EE        		.byte	-18
 1401 02d0 ED        		.byte	-19
 1402 02d1 EB        		.byte	-21
 1403 02d2 EA        		.byte	-22
 1404 02d3 E8        		.byte	-24
 1405 02d4 E6        		.byte	-26
 1406 02d5 E4        		.byte	-28
 1407 02d6 E2        		.byte	-30
 1408 02d7 E0        		.byte	-32
 1409 02d8 DE        		.byte	-34
 1410 02d9 DC        		.byte	-36
 1411 02da DA        		.byte	-38
 1412 02db D7        		.byte	-41
 1413 02dc D5        		.byte	-43
 1414 02dd D3        		.byte	-45
 1415 02de D0        		.byte	-48
 1416 02df CE        		.byte	-50
 1417 02e0 CB        		.byte	-53
 1418 02e1 C9        		.byte	-55
 1419 02e2 C6        		.byte	-58
 1420 02e3 C4        		.byte	-60
 1421 02e4 C1        		.byte	-63
 1422 02e5 BE        		.byte	-66
 1423 02e6 BC        		.byte	-68
 1424 02e7 B9        		.byte	-71
 1425 02e8 B6        		.byte	-74
 1426 02e9 B3        		.byte	-77
 1427 02ea B0        		.byte	-80
 1428 02eb AD        		.byte	-83
 1429 02ec AA        		.byte	-86
 1430 02ed A7        		.byte	-89
 1431 02ee A5        		.byte	-91
 1432 02ef A2        		.byte	-94
 1433 02f0 9E        		.byte	-98
 1434 02f1 9B        		.byte	-101
 1435 02f2 98        		.byte	-104
 1436 02f3 95        		.byte	-107
 1437 02f4 92        		.byte	-110
 1438 02f5 8F        		.byte	-113
 1439 02f6 8C        		.byte	-116
 1440 02f7 89        		.byte	-119
 1441 02f8 86        		.byte	-122
 1442 02f9 83        		.byte	-125
 1443 02fa 7F        		.byte	127
 1444 02fb 7C        		.byte	124
 1445 02fc 79        		.byte	121
 1446 02fd 76        		.byte	118
 1447 02fe 73        		.byte	115
 1448 02ff 70        		.byte	112
 1449 0300 6D        		.byte	109
 1450 0301 6A        		.byte	106
 1451 0302 67        		.byte	103
 1452 0303 64        		.byte	100
 1453 0304 61        		.byte	97
 1454 0305 5D        		.byte	93
 1455 0306 5A        		.byte	90
 1456 0307 58        		.byte	88
 1457 0308 55        		.byte	85
 1458 0309 52        		.byte	82
 1459 030a 4F        		.byte	79
 1460 030b 4C        		.byte	76
 1461 030c 49        		.byte	73
 1462 030d 46        		.byte	70
 1463 030e 43        		.byte	67
 1464 030f 41        		.byte	65
 1465 0310 3E        		.byte	62
 1466 0311 3B        		.byte	59
 1467 0312 39        		.byte	57
 1468 0313 36        		.byte	54
 1469 0314 34        		.byte	52
 1470 0315 31        		.byte	49
 1471 0316 2F        		.byte	47
 1472 0317 2C        		.byte	44
 1473 0318 2A        		.byte	42
 1474 0319 28        		.byte	40
 1475 031a 25        		.byte	37
 1476 031b 23        		.byte	35
 1477 031c 21        		.byte	33
 1478 031d 1F        		.byte	31
 1479 031e 1D        		.byte	29
 1480 031f 1B        		.byte	27
 1481 0320 19        		.byte	25
 1482 0321 17        		.byte	23
 1483 0322 15        		.byte	21
 1484 0323 14        		.byte	20
 1485 0324 12        		.byte	18
 1486 0325 11        		.byte	17
 1487 0326 0F        		.byte	15
 1488 0327 0E        		.byte	14
 1489 0328 0C        		.byte	12
 1490 0329 0B        		.byte	11
 1491 032a 0A        		.byte	10
 1492 032b 09        		.byte	9
 1493 032c 07        		.byte	7
 1494 032d 06        		.byte	6
 1495 032e 05        		.byte	5
 1496 032f 05        		.byte	5
 1497 0330 04        		.byte	4
 1498 0331 03        		.byte	3
 1499 0332 02        		.byte	2
 1500 0333 02        		.byte	2
 1501 0334 01        		.byte	1
 1502 0335 01        		.byte	1
 1503 0336 01        		.byte	1
 1504 0337 00        		.byte	0
 1505 0338 00        		.byte	0
 1506 0339 00        		.byte	0
 1507 033a 00        		.byte	0
 1508 033b 00        		.byte	0
 1509 033c 00        		.byte	0
 1510 033d 00        		.byte	0
 1511 033e 01        		.byte	1
 1512 033f 01        		.byte	1
 1513 0340 01        		.byte	1
 1514 0341 02        		.byte	2
 1515 0342 02        		.byte	2
 1516 0343 03        		.byte	3
 1517 0344 04        		.byte	4
 1518 0345 05        		.byte	5
 1519 0346 05        		.byte	5
 1520 0347 06        		.byte	6
 1521 0348 07        		.byte	7
 1522 0349 09        		.byte	9
 1523 034a 0A        		.byte	10
 1524 034b 0B        		.byte	11
 1525 034c 0C        		.byte	12
 1526 034d 0E        		.byte	14
 1527 034e 0F        		.byte	15
 1528 034f 11        		.byte	17
 1529 0350 12        		.byte	18
 1530 0351 14        		.byte	20
 1531 0352 15        		.byte	21
 1532 0353 17        		.byte	23
 1533 0354 19        		.byte	25
 1534 0355 1B        		.byte	27
 1535 0356 1D        		.byte	29
 1536 0357 1F        		.byte	31
 1537 0358 21        		.byte	33
 1538 0359 23        		.byte	35
 1539 035a 25        		.byte	37
 1540 035b 28        		.byte	40
 1541 035c 2A        		.byte	42
 1542 035d 2C        		.byte	44
 1543 035e 2F        		.byte	47
 1544 035f 31        		.byte	49
 1545 0360 34        		.byte	52
 1546 0361 36        		.byte	54
 1547 0362 39        		.byte	57
 1548 0363 3B        		.byte	59
 1549 0364 3E        		.byte	62
 1550 0365 41        		.byte	65
 1551 0366 43        		.byte	67
 1552 0367 46        		.byte	70
 1553 0368 49        		.byte	73
 1554 0369 4C        		.byte	76
 1555 036a 4F        		.byte	79
 1556 036b 52        		.byte	82
 1557 036c 55        		.byte	85
 1558 036d 58        		.byte	88
 1559 036e 5A        		.byte	90
 1560 036f 5D        		.byte	93
 1561 0370 61        		.byte	97
 1562 0371 64        		.byte	100
 1563 0372 67        		.byte	103
 1564 0373 6A        		.byte	106
 1565 0374 6D        		.byte	109
 1566 0375 70        		.byte	112
 1567 0376 73        		.byte	115
 1568 0377 76        		.byte	118
 1569 0378 79        		.byte	121
 1570 0379 7C        		.byte	124
 1571               	.global	SvArrayElements
 1574               	SvArrayElements:
 1575 037a FF        		.byte	-1
 1576 037b FF        		.byte	-1
 1577               	.global	SvNoteHighNOTLow
 1580               	SvNoteHighNOTLow:
 1581 037c 01        		.byte	1
 1582 037d 01        		.byte	1
 1583               	.global	SvArrNoteDuration
 1586               	SvArrNoteDuration:
 1587 037e 3F        		.byte	63
 1588 037f 3F        		.byte	63
 1589               	.global	SvDurationResolution
 1592               	SvDurationResolution:
 1593 0380 3101      		.word	305
 1594 0382 3101      		.word	305
 1595               		.comm SvNoteFactor,2,1
 1596               		.comm SvLiveArr,1,1
 1597               		.comm SvNextLiveArr,1,1
 1598               		.comm SvArrayLiveCounter,1,1
 1599               		.comm SvFactor78KCounter,1,1
 1600               		.comm SvLiveNoteDurationCounter,1,1
 1601               		.comm SvLive78kCyclesCounter,2,1
 1602               		.comm SvStartCalculatingNextNote,1,1
 1603               		.comm SvNumberOfNotesToPlay,1,1
 1604               		.comm SvNotesToPlay,30,1
 1605               		.comm SvNoteForPlayArray,5,1
 1654               	.Letext0:
DEFINED SYMBOLS
                            *ABS*:00000000 sp_mini_speaker.c
     /tmp/ccb3RhEQ.s:2      *ABS*:0000003f __SREG__
     /tmp/ccb3RhEQ.s:3      *ABS*:0000003e __SP_H__
     /tmp/ccb3RhEQ.s:4      *ABS*:0000003d __SP_L__
     /tmp/ccb3RhEQ.s:5      *ABS*:00000034 __CCP__
     /tmp/ccb3RhEQ.s:6      *ABS*:00000000 __tmp_reg__
     /tmp/ccb3RhEQ.s:7      *ABS*:00000001 __zero_reg__
     /tmp/ccb3RhEQ.s:18     .text:00000000 SfToneGenerator
                            *COM*:00000001 SvStartCalculatingNextNote
                            *COM*:00000001 SvNextLiveArr
     /tmp/ccb3RhEQ.s:1586   .data:0000037e SvArrNoteDuration
     /tmp/ccb3RhEQ.s:1580   .data:0000037c SvNoteHighNOTLow
                            *COM*:00000002 SvNoteFactor
     /tmp/ccb3RhEQ.s:672    .data:00000000 SvNoteWaveLength78K
     /tmp/ccb3RhEQ.s:1574   .data:0000037a SvArrayElements
     /tmp/ccb3RhEQ.s:798    .data:0000007a SvSineWaveLookup256
     /tmp/ccb3RhEQ.s:1058   .data:0000017a SvPlayArray
     /tmp/ccb3RhEQ.s:324    .text:00000238 Start_Timer0_PWM
     /tmp/ccb3RhEQ.s:359    .text:0000025c main
     /tmp/ccb3RhEQ.s:1592   .data:00000380 SvDurationResolution
                            *COM*:00000001 SvNumberOfNotesToPlay
                            *COM*:0000001e SvNotesToPlay
                            *COM*:00000001 SvLiveArr
                            *COM*:00000001 SvArrayLiveCounter
                            *COM*:00000001 SvFactor78KCounter
                            *COM*:00000002 SvLive78kCyclesCounter
                            *COM*:00000001 SvLiveNoteDurationCounter
     /tmp/ccb3RhEQ.s:508    .text:0000037e __vector_16
                            *COM*:00000005 SvNoteForPlayArray

UNDEFINED SYMBOLS
__divmodhi4
__udivmodhi4
__do_copy_data
__do_clear_bss
